target datalayout = "e-m:e-p270:32:32-p271:32:32-p272:64:64-i64:64-i128:128-f80:128-n8:16:32:64-S128"
target triple = "x86_64-pc-linux-gnu"

%struct.Qureg = type { i32, i32, i32, i64, i64, i32, i32, %struct.ComplexArray, %struct.ComplexArray, %struct.ComplexArray, ptr, ptr, ptr, ptr, ptr, ptr }
%struct.ComplexArray = type { ptr, ptr }
%struct.Vector = type { double, double, double }

@__func__.controlledRotateAroundAxis = private unnamed_addr constant [27 x i8] c"controlledRotateAroundAxis\00", align 1

; Function Attrs: nounwind uwtable
define void @controlledRotateAroundAxis(ptr noundef byval(%struct.Qureg) align 8 %0, i32 noundef %1, i32 noundef %2, double noundef %3, ptr noundef byval(%struct.Vector) align 8 %4) #0 {
  %6 = alloca i32, align 4
  %7 = alloca i32, align 4
  %8 = alloca double, align 8
  %9 = alloca i32, align 4
  store i32 %1, ptr %6, align 4, !tbaa !4
  store i32 %2, ptr %7, align 4, !tbaa !4
  store double %3, ptr %8, align 8, !tbaa !25
  %10 = load i32, ptr %6, align 4, !tbaa !4
  %11 = load i32, ptr %7, align 4, !tbaa !4
  call void @validateControlTarget(ptr noundef byval(%struct.Qureg) align 8 %0, i32 noundef %10, i32 noundef %11, ptr noundef @__func__.controlledRotateAroundAxis)
  call void @validateVector(ptr noundef byval(%struct.Vector) align 8 %4, ptr noundef @__func__.controlledRotateAroundAxis)
  %12 = load i32, ptr %6, align 4, !tbaa !4
  %13 = load i32, ptr %7, align 4, !tbaa !4
  %14 = load double, ptr %8, align 8, !tbaa !25
  call void @statevec_controlledRotateAroundAxis(ptr noundef byval(%struct.Qureg) align 8 %0, i32 noundef %12, i32 noundef %13, double noundef %14, ptr noundef byval(%struct.Vector) align 8 %4)
  %15 = getelementptr inbounds nuw %struct.Qureg, ptr %0, i32 0, i32 0
  %16 = load i32, ptr %15, align 8, !tbaa !13
  %17 = icmp ne i32 %16, 0
  br i1 %17, label %18, label %28

18:                                               ; preds = %5
  call void @llvm.lifetime.start.p0(i64 4, ptr %9) #7
  %19 = getelementptr inbounds nuw %struct.Qureg, ptr %0, i32 0, i32 1
  %20 = load i32, ptr %19, align 4, !tbaa !18
  store i32 %20, ptr %9, align 4, !tbaa !4
  %21 = load i32, ptr %6, align 4, !tbaa !4
  %22 = load i32, ptr %9, align 4, !tbaa !4
  %23 = add nsw i32 %21, %22
  %24 = load i32, ptr %7, align 4, !tbaa !4
  %25 = load i32, ptr %9, align 4, !tbaa !4
  %26 = add nsw i32 %24, %25
  %27 = load double, ptr %8, align 8, !tbaa !25
  call void @statevec_controlledRotateAroundAxisConj(ptr noundef byval(%struct.Qureg) align 8 %0, i32 noundef %23, i32 noundef %26, double noundef %27, ptr noundef byval(%struct.Vector) align 8 %4)
  call void @llvm.lifetime.end.p0(i64 4, ptr %9) #7
  br label %28

28:                                               ; preds = %18, %5
  %29 = load double, ptr %8, align 8, !tbaa !25
  %30 = load i32, ptr %6, align 4, !tbaa !4
  %31 = load i32, ptr %7, align 4, !tbaa !4
  call void @qasm_recordControlledAxisRotation(ptr noundef byval(%struct.Qureg) align 8 %0, double noundef %29, ptr noundef byval(%struct.Vector) align 8 %4, i32 noundef %30, i32 noundef %31)
  ret void
}