; Function Attrs: nounwind uwtable
define void @controlledRotateAroundAxis(ptr noundef readonly byval(%struct.Qureg) align 8 captures(none) %0, i32 noundef %1, i32 noundef %2, double noundef %3, ptr noundef readonly byval(%struct.Vector) align 8 captures(none) %4) local_unnamed_addr #0 {
  tail call void @validateControlTarget(ptr noundef nonnull byval(%struct.Qureg) align 8 %0, i32 noundef %1, i32 noundef %2, ptr noundef nonnull @__func__.controlledRotateAroundAxis) #17
  tail call void @validateVector(ptr noundef nonnull byval(%struct.Vector) align 8 %4, ptr noundef nonnull @__func__.controlledRotateAroundAxis) #17
  tail call void @statevec_controlledRotateAroundAxis(ptr noundef nonnull byval(%struct.Qureg) align 8 %0, i32 noundef %1, i32 noundef %2, double noundef %3, ptr noundef nonnull byval(%struct.Vector) align 8 %4) #17
  %6 = load i32, ptr %0, align 8, !tbaa !12
  %.not = icmp eq i32 %6, 0
  br i1 %.not, label %12, label %7

7:                                                ; preds = %5
  %8 = getelementptr inbounds nuw i8, ptr %0, i64 4
  %9 = load i32, ptr %8, align 4, !tbaa !17
  %10 = add nsw i32 %9, %1
  %11 = add nsw i32 %9, %2
  tail call void @statevec_controlledRotateAroundAxisConj(ptr noundef nonnull byval(%struct.Qureg) align 8 %0, i32 noundef %10, i32 noundef %11, double noundef %3, ptr noundef nonnull byval(%struct.Vector) align 8 %4) #17
  br label %12

12:                                               ; preds = %7, %5
  tail call void @qasm_recordControlledAxisRotation(ptr noundef nonnull byval(%struct.Qureg) align 8 %0, double noundef %3, ptr noundef nonnull byval(%struct.Vector) align 8 %4, i32 noundef %1, i32 noundef %2) #17
  ret void
}